; Function Attrs: mustprogress uwtable
define internal noundef nonnull ptr @_ZN7testing8internal15TestMetaFactoryIN12_GLOBAL__N_125IdenticalTest_Stream_TestEE17CreateTestFactoryENS2_11PatternInfoE(ptr nonnull readnone align 8 captures(none) %0, ptr noundef readonly captures(none) %1) unnamed_addr #6 align 2 personality ptr @__gxx_personality_v0 {
  %3 = alloca i64, align 8
  %4 = alloca i64, align 8
  %5 = alloca %"struct.(anonymous namespace)::PatternInfo", align 8
  %6 = tail call noalias noundef nonnull dereferenceable(88) ptr @_Znwm(i64 noundef 88) #31
  invoke fastcc void @_ZN12_GLOBAL__N_111PatternInfoC2ERKS0_(ptr noundef nonnull align 8 dereferenceable(80) %5, ptr noundef nonnull align 8 dereferenceable(80) %1)
          to label %7 unwind label %64

7:                                                ; preds = %2
  store ptr getelementptr inbounds nuw inrange(-16, 24) (i8, ptr @_ZTVN7testing8internal24ParameterizedTestFactoryIN12_GLOBAL__N_125IdenticalTest_Stream_TestEEE, i64 16), ptr %6, align 8
  %8 = getelementptr inbounds nuw i8, ptr %6, i64 8
  %9 = getelementptr inbounds nuw i8, ptr %6, i64 24
  store ptr %9, ptr %8, align 8
  %10 = load ptr, ptr %5, align 8
  %11 = getelementptr inbounds nuw i8, ptr %5, i64 8
  %12 = load i64, ptr %11, align 8
  call void @llvm.lifetime.start.p0(i64 8, ptr nonnull %4) #28
  store i64 %12, ptr %4, align 8
  %13 = icmp ugt i64 %12, 15
  br i1 %13, label %.noexc.i.i, label %._crit_edge.i.i.i

.noexc.i.i:                                       ; preds = %7
  %14 = invoke noundef ptr @_ZNSt7__cxx1112basic_stringIcSt11char_traitsIcESaIcEE9_M_createERmm(ptr noundef nonnull align 8 dereferenceable(80) %8, ptr noundef nonnull align 8 dereferenceable(8) %4, i64 noundef 0)
          to label %.noexc unwind label %66

.noexc:                                           ; preds = %.noexc.i.i
  store ptr %14, ptr %8, align 8
  %15 = load i64, ptr %4, align 8
  store i64 %15, ptr %9, align 8
  br label %._crit_edge.i.i.i

._crit_edge.i.i.i:                                ; preds = %.noexc, %7
  %16 = phi ptr [ %14, %.noexc ], [ %9, %7 ]
  switch i64 %12, label %19 [
    i64 1, label %17
    i64 0, label %_ZNSt7__cxx1112basic_stringIcSt11char_traitsIcESaIcEEC2ERKS4_.exit.i
  ]

17:                                               ; preds = %._crit_edge.i.i.i
  %18 = load i8, ptr %10, align 1
  store i8 %18, ptr %16, align 1
  br label %_ZNSt7__cxx1112basic_stringIcSt11char_traitsIcESaIcEEC2ERKS4_.exit.i

19:                                               ; preds = %._crit_edge.i.i.i
  call void @llvm.memcpy.p0.p0.i64(ptr align 1 %16, ptr align 1 %10, i64 %12, i1 false)
  br label %_ZNSt7__cxx1112basic_stringIcSt11char_traitsIcESaIcEEC2ERKS4_.exit.i

_ZNSt7__cxx1112basic_stringIcSt11char_traitsIcESaIcEEC2ERKS4_.exit.i: ; preds = %19, %17, %._crit_edge.i.i.i
  %20 = load i64, ptr %4, align 8
  %21 = getelementptr inbounds nuw i8, ptr %6, i64 16
  store i64 %20, ptr %21, align 8
  %22 = load ptr, ptr %8, align 8
  %23 = getelementptr inbounds nuw i8, ptr %22, i64 %20
  store i8 0, ptr %23, align 1
  call void @llvm.lifetime.end.p0(i64 8, ptr nonnull %4) #28
  %24 = getelementptr inbounds nuw i8, ptr %6, i64 40
  %25 = getelementptr inbounds nuw i8, ptr %5, i64 32
  %26 = load i32, ptr %25, align 8
  store i32 %26, ptr %24, align 8
  %27 = getelementptr inbounds nuw i8, ptr %6, i64 48
  %28 = getelementptr inbounds nuw i8, ptr %5, i64 40
  %29 = getelementptr inbounds nuw i8, ptr %6, i64 64
  store ptr %29, ptr %27, align 8
  %30 = load ptr, ptr %28, align 8
  %31 = getelementptr inbounds nuw i8, ptr %5, i64 48
  %32 = load i64, ptr %31, align 8
  call void @llvm.lifetime.start.p0(i64 8, ptr nonnull %3) #28
  store i64 %32, ptr %3, align 8
  %33 = icmp ugt i64 %32, 15
  br i1 %33, label %.noexc.i7.i, label %._crit_edge.i.i6.i

.noexc.i7.i:                                      ; preds = %_ZNSt7__cxx1112basic_stringIcSt11char_traitsIcESaIcEEC2ERKS4_.exit.i
  %34 = invoke noundef ptr @_ZNSt7__cxx1112basic_stringIcSt11char_traitsIcESaIcEE9_M_createERmm(ptr noundef nonnull align 8 dereferenceable(32) %27, ptr noundef nonnull align 8 dereferenceable(8) %3, i64 noundef 0)
          to label %.noexc.i unwind label %40

.noexc.i:                                         ; preds = %.noexc.i7.i
  store ptr %34, ptr %27, align 8
  %35 = load i64, ptr %3, align 8
  store i64 %35, ptr %29, align 8
  br label %._crit_edge.i.i6.i

._crit_edge.i.i6.i:                               ; preds = %.noexc.i, %_ZNSt7__cxx1112basic_stringIcSt11char_traitsIcESaIcEEC2ERKS4_.exit.i
  %36 = phi ptr [ %34, %.noexc.i ], [ %29, %_ZNSt7__cxx1112basic_stringIcSt11char_traitsIcESaIcEEC2ERKS4_.exit.i ]
  switch i64 %32, label %39 [
    i64 1, label %37
    i64 0, label %46
  ]

37:                                               ; preds = %._crit_edge.i.i6.i
  %38 = load i8, ptr %30, align 1
  store i8 %38, ptr %36, align 1
  br label %46

39:                                               ; preds = %._crit_edge.i.i6.i
  call void @llvm.memcpy.p0.p0.i64(ptr align 1 %36, ptr align 1 %30, i64 %32, i1 false)
  br label %46

40:                                               ; preds = %.noexc.i7.i
  %41 = landingpad { ptr, i32 }
          cleanup
  %42 = load ptr, ptr %8, align 8
  %43 = icmp eq ptr %42, %9
  br i1 %43, label %_ZNKSt7__cxx1112basic_stringIcSt11char_traitsIcESaIcEE11_M_is_localEv.exit.thread.i.i.i6, label %_ZNKSt7__cxx1112basic_stringIcSt11char_traitsIcESaIcEE11_M_is_localEv.exit.i.i.i4

_ZNKSt7__cxx1112basic_stringIcSt11char_traitsIcESaIcEE11_M_is_localEv.exit.thread.i.i.i6: ; preds = %40
  %44 = load i64, ptr %21, align 8
  %45 = icmp ult i64 %44, 16
  call void @llvm.assume(i1 %45)
  br label %.body

_ZNKSt7__cxx1112basic_stringIcSt11char_traitsIcESaIcEE11_M_is_localEv.exit.i.i.i4: ; preds = %40
  call void @_ZdlPv(ptr noundef %42) #27
  br label %.body

46:                                               ; preds = %._crit_edge.i.i6.i, %37, %39
  %47 = load i64, ptr %3, align 8
  %48 = getelementptr inbounds nuw i8, ptr %6, i64 56
  store i64 %47, ptr %48, align 8
  %49 = load ptr, ptr %27, align 8
  %50 = getelementptr inbounds nuw i8, ptr %49, i64 %47
  store i8 0, ptr %50, align 1
  call void @llvm.lifetime.end.p0(i64 8, ptr nonnull %3) #28
  %51 = getelementptr inbounds nuw i8, ptr %6, i64 80
  %52 = getelementptr inbounds nuw i8, ptr %5, i64 72
  %53 = load i64, ptr %52, align 8
  store i64 %53, ptr %51, align 8
  %54 = load ptr, ptr %28, align 8
  %55 = getelementptr inbounds nuw i8, ptr %5, i64 56
  %56 = icmp eq ptr %54, %55
  br i1 %56, label %_ZNKSt7__cxx1112basic_stringIcSt11char_traitsIcESaIcEE11_M_is_localEv.exit.thread.i.i.i, label %_ZNKSt7__cxx1112basic_stringIcSt11char_traitsIcESaIcEE11_M_is_localEv.exit.i.i.i

_ZNKSt7__cxx1112basic_stringIcSt11char_traitsIcESaIcEE11_M_is_localEv.exit.thread.i.i.i: ; preds = %46
  %57 = load i64, ptr %31, align 8
  %58 = icmp ult i64 %57, 16
  call void @llvm.assume(i1 %58)
  br label %_ZNSt7__cxx1112basic_stringIcSt11char_traitsIcESaIcEED2Ev.exit.i

_ZNKSt7__cxx1112basic_stringIcSt11char_traitsIcESaIcEE11_M_is_localEv.exit.i.i.i: ; preds = %46
  call void @_ZdlPv(ptr noundef %54) #27
  br label %_ZNSt7__cxx1112basic_stringIcSt11char_traitsIcESaIcEED2Ev.exit.i

_ZNSt7__cxx1112basic_stringIcSt11char_traitsIcESaIcEED2Ev.exit.i: ; preds = %_ZNKSt7__cxx1112basic_stringIcSt11char_traitsIcESaIcEE11_M_is_localEv.exit.i.i.i, %_ZNKSt7__cxx1112basic_stringIcSt11char_traitsIcESaIcEE11_M_is_localEv.exit.thread.i.i.i
  %59 = load ptr, ptr %5, align 8
  %60 = getelementptr inbounds nuw i8, ptr %5, i64 16
  %61 = icmp eq ptr %59, %60
  br i1 %61, label %_ZNKSt7__cxx1112basic_stringIcSt11char_traitsIcESaIcEE11_M_is_localEv.exit.thread.i.i2.i, label %_ZNKSt7__cxx1112basic_stringIcSt11char_traitsIcESaIcEE11_M_is_localEv.exit.i.i1.i

_ZNKSt7__cxx1112basic_stringIcSt11char_traitsIcESaIcEE11_M_is_localEv.exit.thread.i.i2.i: ; preds = %_ZNSt7__cxx1112basic_stringIcSt11char_traitsIcESaIcEED2Ev.exit.i
  %62 = load i64, ptr %11, align 8
  %63 = icmp ult i64 %62, 16
  call void @llvm.assume(i1 %63)
  br label %_ZN12_GLOBAL__N_111PatternInfoD2Ev.exit

_ZNKSt7__cxx1112basic_stringIcSt11char_traitsIcESaIcEE11_M_is_localEv.exit.i.i1.i: ; preds = %_ZNSt7__cxx1112basic_stringIcSt11char_traitsIcESaIcEED2Ev.exit.i
  call void @_ZdlPv(ptr noundef %59) #27
  br label %_ZN12_GLOBAL__N_111PatternInfoD2Ev.exit

_ZN12_GLOBAL__N_111PatternInfoD2Ev.exit:          ; preds = %_ZNKSt7__cxx1112basic_stringIcSt11char_traitsIcESaIcEE11_M_is_localEv.exit.thread.i.i2.i, %_ZNKSt7__cxx1112basic_stringIcSt11char_traitsIcESaIcEE11_M_is_localEv.exit.i.i1.i
  ret ptr %6

64:                                               ; preds = %2
  %65 = landingpad { ptr, i32 }
          cleanup
  br label %68

66:                                               ; preds = %.noexc.i.i
  %67 = landingpad { ptr, i32 }
          cleanup
  br label %.body

.body:                                            ; preds = %_ZNKSt7__cxx1112basic_stringIcSt11char_traitsIcESaIcEE11_M_is_localEv.exit.thread.i.i.i6, %_ZNKSt7__cxx1112basic_stringIcSt11char_traitsIcESaIcEE11_M_is_localEv.exit.i.i.i4, %66
  %eh.lpad-body = phi { ptr, i32 } [ %67, %66 ], [ %41, %_ZNKSt7__cxx1112basic_stringIcSt11char_traitsIcESaIcEE11_M_is_localEv.exit.i.i.i4 ], [ %41, %_ZNKSt7__cxx1112basic_stringIcSt11char_traitsIcESaIcEE11_M_is_localEv.exit.thread.i.i.i6 ]
  call fastcc void @_ZN12_GLOBAL__N_111PatternInfoD2Ev(ptr noundef nonnull align 8 dereferenceable(80) %5) #28
  br label %68

68:                                               ; preds = %64, %.body
  %.pn = phi { ptr, i32 } [ %eh.lpad-body, %.body ], [ %65, %64 ]
  call void @_ZdlPv(ptr noundef nonnull %6) #27
  resume { ptr, i32 } %.pn
}